; Function Attrs: nounwind uwtable
define dso_local nonnull ptr @jq_yy_scan_bytes(ptr noundef readonly captures(none) %0, i32 noundef %1, ptr noundef captures(none) %2) local_unnamed_addr #0 {
  %4 = add nsw i32 %1, 2
  %5 = sext i32 %4 to i64
  %6 = tail call ptr @jv_mem_alloc(i64 noundef %5) #17
  %.not = icmp eq ptr %6, null
  br i1 %.not, label %8, label %.preheader

.preheader:                                       ; preds = %3
  %7 = icmp sgt i32 %1, 0
  br i1 %7, label %.lr.ph.preheader, label %._crit_edge

.lr.ph.preheader:                                 ; preds = %.preheader
  %wide.trip.count = zext nneg i32 %1 to i64
  br label %.lr.ph

8:                                                ; preds = %3
  tail call fastcc void @yy_fatal_error(ptr noundef nonnull @.str.5) #18
  unreachable

.lr.ph:                                           ; preds = %.lr.ph.preheader, %.lr.ph
  %indvars.iv = phi i64 [ 0, %.lr.ph.preheader ], [ %indvars.iv.next, %.lr.ph ]
  %9 = getelementptr inbounds nuw i8, ptr %0, i64 %indvars.iv
  %10 = load i8, ptr %9, align 1, !tbaa !37
  %11 = getelementptr inbounds nuw i8, ptr %6, i64 %indvars.iv
  store i8 %10, ptr %11, align 1, !tbaa !37
  %indvars.iv.next = add nuw nsw i64 %indvars.iv, 1
  %exitcond.not = icmp eq i64 %indvars.iv.next, %wide.trip.count
  br i1 %exitcond.not, label %._crit_edge, label %.lr.ph, !llvm.loop !70

._crit_edge:                                      ; preds = %.lr.ph, %.preheader
  %12 = sext i32 %1 to i64
  %13 = getelementptr i8, ptr %6, i64 %12
  %14 = getelementptr i8, ptr %13, i64 1
  store i8 0, ptr %14, align 1, !tbaa !37
  store i8 0, ptr %13, align 1, !tbaa !37
  %15 = icmp ugt i32 %1, -3
  br i1 %15, label %19, label %16

16:                                               ; preds = %._crit_edge
  %17 = tail call ptr @jv_mem_alloc(i64 noundef 64) #17
  %.not27.i = icmp eq ptr %17, null
  br i1 %.not27.i, label %18, label %20

18:                                               ; preds = %16
  tail call fastcc void @yy_fatal_error(ptr noundef nonnull @.str.4) #18
  unreachable

19:                                               ; preds = %._crit_edge
  tail call fastcc void @yy_fatal_error(ptr noundef nonnull @.str.6) #18
  unreachable

20:                                               ; preds = %16
  %21 = getelementptr inbounds nuw i8, ptr %17, i64 24
  store i32 %1, ptr %21, align 8, !tbaa !27
  %22 = getelementptr inbounds nuw i8, ptr %17, i64 8
  store ptr %6, ptr %22, align 8, !tbaa !29
  %23 = getelementptr inbounds nuw i8, ptr %17, i64 16
  store ptr %6, ptr %23, align 8, !tbaa !33
  %24 = getelementptr inbounds nuw i8, ptr %17, i64 32
  store i32 0, ptr %24, align 8, !tbaa !30
  store ptr null, ptr %17, align 8, !tbaa !36
  %25 = getelementptr inbounds nuw i8, ptr %17, i64 28
  store i32 %1, ptr %25, align 4, !tbaa !31
  %26 = getelementptr inbounds nuw i8, ptr %17, i64 36
  store i32 0, ptr %26, align 4, !tbaa !58
  %27 = getelementptr inbounds nuw i8, ptr %17, i64 40
  store i32 1, ptr %27, align 8, !tbaa !66
  %28 = getelementptr inbounds nuw i8, ptr %17, i64 52
  store i32 0, ptr %28, align 4, !tbaa !55
  %29 = getelementptr inbounds nuw i8, ptr %17, i64 56
  store i32 0, ptr %29, align 8, !tbaa !51
  tail call void @jq_yy_switch_to_buffer(ptr noundef nonnull %17, ptr noundef %2)
  store i32 1, ptr %24, align 8, !tbaa !30
  ret ptr %17
}